; Function Attrs: nounwind uwtable
define hidden i32 @lsarpc_dissect_struct_lsa_TranslatedName(ptr noundef %0, i32 noundef %1, ptr noundef %2, ptr noundef %3, ptr noundef %4, ptr noundef %5, i32 noundef %6, i32 %7) local_unnamed_addr #0 {
  %9 = alloca i32, align 4
  %10 = getelementptr inbounds nuw i8, ptr %4, i64 72
  %11 = load ptr, ptr %10, align 8
  %12 = getelementptr inbounds nuw i8, ptr %11, i64 96
  %13 = load i32, ptr %12, align 8
  %14 = and i32 %13, 1
  %.not = icmp eq i32 %14, 0
  %15 = getelementptr inbounds nuw i8, ptr %4, i64 28
  %16 = load i32, ptr %15, align 4
  %.not46 = icmp ne i32 %16, 0
  br i1 %.not, label %22, label %17

17:                                               ; preds = %8
  %18 = and i32 %1, 7
  %.not49 = icmp eq i32 %18, 0
  %or.cond = or i1 %.not49, %.not46
  br i1 %or.cond, label %27, label %19

19:                                               ; preds = %17
  %20 = and i32 %1, -8
  %21 = add i32 %20, 8
  br label %27

22:                                               ; preds = %8
  %23 = and i32 %1, 3
  %.not47 = icmp eq i32 %23, 0
  %or.cond54 = or i1 %.not47, %.not46
  br i1 %or.cond54, label %27, label %24

24:                                               ; preds = %22
  %25 = and i32 %1, -4
  %26 = add i32 %25, 4
  br label %27

27:                                               ; preds = %22, %24, %17, %19
  %.0 = phi i32 [ %1, %17 ], [ %21, %19 ], [ %1, %22 ], [ %26, %24 ]
  %.not50 = icmp eq ptr %3, null
  br i1 %.not50, label %32, label %28

28:                                               ; preds = %27
  %29 = tail call ptr @proto_tree_add_item(ptr noundef nonnull %3, i32 noundef %6, ptr noundef %0, i32 noundef %.0, i32 noundef -1, i32 noundef 0) #5
  %30 = load i32, ptr @ett_lsarpc_lsa_TranslatedName, align 4
  %31 = tail call ptr @proto_item_add_subtree(ptr noundef %29, i32 noundef %30) #5
  br label %32

32:                                               ; preds = %28, %27
  %.044 = phi ptr [ %29, %28 ], [ null, %27 ]
  %.043 = phi ptr [ %31, %28 ], [ null, %27 ]
  %33 = load i32, ptr @hf_lsarpc_lsa_TranslatedName_sid_type, align 4
  call void @llvm.lifetime.start.p0(i64 4, ptr nonnull %9)
  store i32 0, ptr %9, align 4
  %34 = call i32 @dissect_ndr_uint1632(ptr noundef %0, i32 noundef %.0, ptr noundef %2, ptr noundef %.043, ptr noundef nonnull %4, ptr noundef %5, i32 noundef %33, ptr noundef nonnull %9) #5
  call void @llvm.lifetime.end.p0(i64 4, ptr nonnull %9)
  %35 = load i32, ptr @hf_lsarpc_lsa_TranslatedName_name, align 4
  %36 = call i32 @lsarpc_dissect_struct_lsa_String(ptr noundef %0, i32 noundef %34, ptr noundef %2, ptr noundef %.043, ptr noundef nonnull %4, ptr noundef %5, i32 noundef %35, i32 poison)
  %37 = load i32, ptr @hf_lsarpc_lsa_TranslatedName_sid_index, align 4
  %38 = call i32 @PIDL_dissect_uint32(ptr noundef %0, i32 noundef %36, ptr noundef %2, ptr noundef %.043, ptr noundef nonnull %4, ptr noundef %5, i32 noundef %37, i32 noundef 0) #5
  %39 = sub i32 %38, %.0
  call void @proto_item_set_len(ptr noundef %.044, i32 noundef %39) #5
  %40 = load ptr, ptr %10, align 8
  %41 = getelementptr inbounds nuw i8, ptr %40, i64 96
  %42 = load i32, ptr %41, align 8
  %43 = and i32 %42, 1
  %.not51 = icmp eq i32 %43, 0
  br i1 %.not51, label %51, label %44

44:                                               ; preds = %32
  %45 = getelementptr inbounds nuw i8, ptr %4, i64 28
  %46 = load i32, ptr %45, align 4
  %.not52 = icmp ne i32 %46, 0
  %47 = and i32 %38, 7
  %.not53 = icmp eq i32 %47, 0
  %or.cond55 = or i1 %.not53, %.not52
  br i1 %or.cond55, label %51, label %48

48:                                               ; preds = %44
  %49 = and i32 %38, -8
  %50 = add i32 %49, 8
  br label %51

51:                                               ; preds = %48, %44, %32
  %.1 = phi i32 [ %38, %44 ], [ %50, %48 ], [ %38, %32 ]
  ret i32 %.1
}